target datalayout = "e-m:e-p270:32:32-p271:32:32-p272:64:64-i64:64-i128:128-f80:128-n8:16:32:64-S128"
target triple = "x86_64-pc-linux-gnu"

%struct.H5HF_free_section_t = type { %struct.H5FS_section_info_t, %union.anon }
%struct.H5FS_section_info_t = type { i64, i64, i32, i32 }
%union.anon = type { %struct.anon.1 }
%struct.anon.1 = type { %union.anon.2, i32, i32, i32, ptr, i32, i64, i32, i32, i32, ptr, i32, ptr }
%union.anon.2 = type { ptr }

@H5HF_init_g = external global i8, align 1
@H5_libterm_g = external global i8, align 1

; Function Attrs: nounwind uwtable
define internal i32 @H5HF__sect_single_can_merge(ptr noundef %0, ptr noundef %1, ptr noundef %2) #0 {
  %4 = alloca ptr, align 8
  %5 = alloca ptr, align 8
  %6 = alloca ptr, align 8
  %7 = alloca ptr, align 8
  %8 = alloca ptr, align 8
  %9 = alloca i32, align 4
  store ptr %0, ptr %4, align 8, !tbaa !34
  store ptr %1, ptr %5, align 8, !tbaa !34
  store ptr %2, ptr %6, align 8, !tbaa !10
  call void @llvm.lifetime.start.p0(i64 8, ptr %7) #7
  %10 = load ptr, ptr %4, align 8, !tbaa !34
  store ptr %10, ptr %7, align 8, !tbaa !23
  call void @llvm.lifetime.start.p0(i64 8, ptr %8) #7
  %11 = load ptr, ptr %5, align 8, !tbaa !34
  store ptr %11, ptr %8, align 8, !tbaa !23
  call void @llvm.lifetime.start.p0(i64 4, ptr %9) #7
  store i32 0, ptr %9, align 4, !tbaa !11
  %12 = load i8, ptr @H5HF_init_g, align 1, !tbaa !13, !range !15, !noundef !16
  %13 = trunc i8 %12 to i1
  br i1 %13, label %18, label %14

14:                                               ; preds = %3
  %15 = load i8, ptr @H5_libterm_g, align 1, !tbaa !13, !range !15, !noundef !16
  %16 = trunc i8 %15 to i1
  %17 = xor i1 %16, true
  br label %18

18:                                               ; preds = %14, %3
  %19 = phi i1 [ true, %3 ], [ %17, %14 ]
  %20 = xor i1 %19, true
  %21 = xor i1 %20, true
  %22 = zext i1 %21 to i32
  %23 = sext i32 %22 to i64
  %24 = call i64 @llvm.expect.i64(i64 %23, i64 1)
  %25 = icmp ne i64 %24, 0
  br i1 %25, label %26, label %58

26:                                               ; preds = %18
  %27 = load ptr, ptr %7, align 8, !tbaa !23
  %28 = getelementptr inbounds nuw %struct.H5HF_free_section_t, ptr %27, i32 0, i32 0
  %29 = getelementptr inbounds nuw %struct.H5FS_section_info_t, ptr %28, i32 0, i32 0
  %30 = load i64, ptr %29, align 8, !tbaa !36
  %31 = load ptr, ptr %7, align 8, !tbaa !23
  %32 = getelementptr inbounds nuw %struct.H5HF_free_section_t, ptr %31, i32 0, i32 0
  %33 = getelementptr inbounds nuw %struct.H5FS_section_info_t, ptr %32, i32 0, i32 1
  %34 = load i64, ptr %33, align 8, !tbaa !37
  %35 = add i64 %30, %34
  %36 = icmp ne i64 %35, -1
  br i1 %36, label %37, label %56

37:                                               ; preds = %26
  %38 = load ptr, ptr %7, align 8, !tbaa !23
  %39 = getelementptr inbounds nuw %struct.H5HF_free_section_t, ptr %38, i32 0, i32 0
  %40 = getelementptr inbounds nuw %struct.H5FS_section_info_t, ptr %39, i32 0, i32 0
  %41 = load i64, ptr %40, align 8, !tbaa !36
  %42 = load ptr, ptr %7, align 8, !tbaa !23
  %43 = getelementptr inbounds nuw %struct.H5HF_free_section_t, ptr %42, i32 0, i32 0
  %44 = getelementptr inbounds nuw %struct.H5FS_section_info_t, ptr %43, i32 0, i32 1
  %45 = load i64, ptr %44, align 8, !tbaa !37
  %46 = add i64 %41, %45
  %47 = load ptr, ptr %8, align 8, !tbaa !23
  %48 = getelementptr inbounds nuw %struct.H5HF_free_section_t, ptr %47, i32 0, i32 0
  %49 = getelementptr inbounds nuw %struct.H5FS_section_info_t, ptr %48, i32 0, i32 0
  %50 = load i64, ptr %49, align 8, !tbaa !36
  %51 = icmp eq i64 %46, %50
  br i1 %51, label %52, label %56

52:                                               ; preds = %37
  br label %53

53:                                               ; preds = %52
  store i32 1, ptr %9, align 4, !tbaa !11
  br label %57

54:                                               ; No predecessors!
  br label %55

55:                                               ; preds = %54
  br label %56

56:                                               ; preds = %55, %37, %26
  br label %57

57:                                               ; preds = %56, %53
  br label %58

58:                                               ; preds = %57, %18
  %59 = load i32, ptr %9, align 4, !tbaa !11
  call void @llvm.lifetime.end.p0(i64 4, ptr %9) #7
  call void @llvm.lifetime.end.p0(i64 8, ptr %8) #7
  call void @llvm.lifetime.end.p0(i64 8, ptr %7) #7
  ret i32 %59
}