; Function Attrs: mustprogress nofree norecurse nosync nounwind willreturn memory(read, inaccessiblemem: none) uwtable
define internal range(i32 0, 2) i32 @H5HF__sect_single_can_merge(ptr noundef readonly captures(none) %0, ptr noundef readonly captures(none) %1, ptr readnone captures(none) %2) #1 {
  %4 = load i8, ptr @H5HF_init_g, align 1, !tbaa !3, !range !7, !noundef !8
  %5 = trunc nuw i8 %4 to i1
  %6 = load i8, ptr @H5_libterm_g, align 1, !range !7
  %7 = trunc nuw i8 %6 to i1
  %8 = xor i1 %7, true
  %9 = select i1 %5, i1 true, i1 %8
  br i1 %9, label %10, label %18, !prof !9

10:                                               ; preds = %3
  %11 = load i64, ptr %0, align 8, !tbaa !23
  %12 = getelementptr inbounds nuw i8, ptr %0, i64 8
  %13 = load i64, ptr %12, align 8, !tbaa !24
  %14 = add i64 %13, %11
  %.not = icmp eq i64 %14, -1
  br i1 %.not, label %18, label %15

15:                                               ; preds = %10
  %16 = load i64, ptr %1, align 8, !tbaa !23
  %17 = icmp eq i64 %14, %16
  %spec.select = zext i1 %17 to i32
  br label %18

18:                                               ; preds = %15, %10, %3
  %.0 = phi i32 [ 0, %10 ], [ 0, %3 ], [ %spec.select, %15 ]
  ret i32 %.0
}